(dp0
S'k'
p1
cnumpy.core.multiarray
scalar
p2
(cnumpy
dtype
p3
(S'f8'
p4
I0
I1
tp5
Rp6
(I3
S'<'
p7
NNNI-1
I-1
I0
tp8
bS'A\xd4}\x00R\x9b\xa8?'
p9
tp10
Rp11
sS'g'
p12
g2
(g6
S'\xb5T\xde\x8epZ\xe9?'
p13
tp14
Rp15
sS'N'
p16
F633.0
s.