(iDOE_FullFactorial
DOE
p0
(dp1
S'runs'
p2
I64
sS'variables'
p3
(lp4
(dp5
S'upper'
p6
F0.075
sS'lower'
p7
F0.02
sS'levels'
p8
I4
sS'type'
p9
c__builtin__
float
p10
sS'name'
p11
S'k'
p12
sa(dp13
g6
I1
sg7
F0.0
sg8
I4
sg9
g10
sg11
S'g'
p14
sa(dp15
g6
I1000
sg7
I100
sg8
I4
sg9
c__builtin__
int
p16
sg11
S'N'
p17
sasS'driver'
p18
S'Full Factorial'
p19
sS'domain'
p20
(dp21
g12
(lp22
F0.02
aF0.02
aF0.02
aF0.02
aF0.02
aF0.02
aF0.02
aF0.02
aF0.02
aF0.02
aF0.02
aF0.02
aF0.02
aF0.02
aF0.02
aF0.02
aF0.0383333333333333
aF0.0383333333333333
aF0.0383333333333333
aF0.0383333333333333
aF0.0383333333333333
aF0.0383333333333333
aF0.0383333333333333
aF0.0383333333333333
aF0.0383333333333333
aF0.0383333333333333
aF0.0383333333333333
aF0.0383333333333333
aF0.0383333333333333
aF0.0383333333333333
aF0.0383333333333333
aF0.0383333333333333
aF0.0566666666666667
aF0.0566666666666667
aF0.0566666666666667
aF0.0566666666666667
aF0.0566666666666667
aF0.0566666666666667
aF0.0566666666666667
aF0.0566666666666667
aF0.0566666666666667
aF0.0566666666666667
aF0.0566666666666667
aF0.0566666666666667
aF0.0566666666666667
aF0.0566666666666667
aF0.0566666666666667
aF0.0566666666666667
aF0.075
aF0.075
aF0.075
aF0.075
aF0.075
aF0.075
aF0.075
aF0.075
aF0.075
aF0.075
aF0.075
aF0.075
aF0.075
aF0.075
aF0.075
aF0.075
asg14
(lp23
F0.0
aF0.0
aF0.0
aF0.0
aF0.333333333333333
aF0.333333333333333
aF0.333333333333333
aF0.333333333333333
aF0.666666666666667
aF0.666666666666667
aF0.666666666666667
aF0.666666666666667
aF1.0
aF1.0
aF1.0
aF1.0
aF0.0
aF0.0
aF0.0
aF0.0
aF0.333333333333333
aF0.333333333333333
aF0.333333333333333
aF0.333333333333333
aF0.666666666666667
aF0.666666666666667
aF0.666666666666667
aF0.666666666666667
aF1.0
aF1.0
aF1.0
aF1.0
aF0.0
aF0.0
aF0.0
aF0.0
aF0.333333333333333
aF0.333333333333333
aF0.333333333333333
aF0.333333333333333
aF0.666666666666667
aF0.666666666666667
aF0.666666666666667
aF0.666666666666667
aF1.0
aF1.0
aF1.0
aF1.0
aF0.0
aF0.0
aF0.0
aF0.0
aF0.333333333333333
aF0.333333333333333
aF0.333333333333333
aF0.333333333333333
aF0.666666666666667
aF0.666666666666667
aF0.666666666666667
aF0.666666666666667
aF1.0
aF1.0
aF1.0
aF1.0
asg17
(lp24
F100.0
aF400.0
aF700.0
aF1000.0
aF100.0
aF400.0
aF700.0
aF1000.0
aF100.0
aF400.0
aF700.0
aF1000.0
aF100.0
aF400.0
aF700.0
aF1000.0
aF100.0
aF400.0
aF700.0
aF1000.0
aF100.0
aF400.0
aF700.0
aF1000.0
aF100.0
aF400.0
aF700.0
aF1000.0
aF100.0
aF400.0
aF700.0
aF1000.0
aF100.0
aF400.0
aF700.0
aF1000.0
aF100.0
aF400.0
aF700.0
aF1000.0
aF100.0
aF400.0
aF700.0
aF1000.0
aF100.0
aF400.0
aF700.0
aF1000.0
aF100.0
aF400.0
aF700.0
aF1000.0
aF100.0
aF400.0
aF700.0
aF1000.0
aF100.0
aF400.0
aF700.0
aF1000.0
aF100.0
aF400.0
aF700.0
aF1000.0
assg8
I4
sS'n_var_2'
p25
I0
sS'variables_names'
p26
(lp27
g12
ag14
ag17
asS'output'
p28
(dp29
S'stress'
p30
(lp31
F5899795.0
aF1824377.75
aF1828124.75
aF1827922.875
aF5899795.0
aF1824377.75
aF1828124.75
aF1827922.875
aF5899795.0
aF1824377.75
aF1828124.75
aF1827922.875
aF5899795.0
aF1824377.75
aF1828124.75
aF1827922.875
aF1827922.875
aF6782057.5
aF2716062.5
aF1796976.625
aF22685936.0
aF2805600.25
aF1819170.0
aF1819170.0
aF1819170.0
aF3849468.5
aF3868252.0
aF3868252.0
aF11573257.0
aF1796976.625
aF1825460.5
aF1911648.375
aF35080828.0
aF9689370.0
aF8817136.0
aF8840695.0
aF25861256.0
aF8389245.0
aF17975948.0
aF8403329.0
aF30266964.0
aF5143296.5
aF7269574.5
aF4264993.5
aF13385555.0
aF13385555.0
aF5906741.0
aF2403478.75
aF78642880.0
aF45357900.0
aF42988532.0
aF42904308.0
aF81543392.0
aF34283952.0
aF44479144.0
aF25665950.0
aF41706040.0
aF20680220.0
aF19139784.0
aF20923156.0
aF23324336.0
aF17345670.0
aF17538630.0
aF17239966.0
asS'nodes'
p32
(lp33
I533
aI737
aI772
aI780
aI533
aI737
aI772
aI780
aI533
aI737
aI772
aI780
aI533
aI737
aI772
aI780
aI780
aI530
aI531
aI552
aI308
aI467
aI493
aI509
aI509
aI395
aI416
aI416
aI243
aI358
aI352
aI362
aI281
aI367
aI413
aI383
aI203
aI293
aI299
aI307
aI164
aI233
aI239
aI245
aI151
aI151
aI204
aI212
aI214
aI266
aI275
aI288
aI139
aI169
aI182
aI188
aI117
aI144
aI150
aI152
aI106
aI124
aI132
aI134
asS'displacement'
p34
(lp35
cnumpy.core.multiarray
scalar
p36
(cnumpy
dtype
p37
(S'f4'
p38
I0
I1
tp39
Rp40
(I3
S'<'
p41
NNNI-1
I-1
I0
tp42
bS'\xb0\x83\x86\xba'
p43
tp44
Rp45
ag36
(g40
S'1\x00\x9b\xba'
p46
tp47
Rp48
ag36
(g40
S'\x89\x11\x8f\xba'
p49
tp50
Rp51
ag36
(g40
S'(lf\xba'
p52
tp53
Rp54
ag36
(g40
S'\xb0\x83\x86\xba'
p55
tp56
Rp57
ag36
(g40
S'1\x00\x9b\xba'
p58
tp59
Rp60
ag36
(g40
S'\x89\x11\x8f\xba'
p61
tp62
Rp63
ag36
(g40
S'(lf\xba'
p64
tp65
Rp66
ag36
(g40
S'\xb0\x83\x86\xba'
p67
tp68
Rp69
ag36
(g40
S'1\x00\x9b\xba'
p70
tp71
Rp72
ag36
(g40
S'\x89\x11\x8f\xba'
p73
tp74
Rp75
ag36
(g40
S'(lf\xba'
p76
tp77
Rp78
ag36
(g40
S'\xb0\x83\x86\xba'
p79
tp80
Rp81
ag36
(g40
S'1\x00\x9b\xba'
p82
tp83
Rp84
ag36
(g40
S'\x89\x11\x8f\xba'
p85
tp86
Rp87
ag36
(g40
S'(lf\xba'
p88
tp89
Rp90
ag36
(g40
S'(lf\xba'
p91
tp92
Rp93
ag36
(g40
S'i\xf6\x8e\xb9'
p94
tp95
Rp96
ag36
(g40
S'%_q\xba'
p97
tp98
Rp99
ag36
(g40
S'\x0bOQ\xba'
p100
tp101
Rp102
ag36
(g40
S'\xfe\xa1:\xbd'
p103
tp104
Rp105
ag36
(g40
S'\xca{\xa7\xb9'
p106
tp107
Rp108
ag36
(g40
S'\xd5U\xe2\xb9'
p109
tp110
Rp111
ag36
(g40
S'\xd3\x1f\xbb\xb9'
p112
tp113
Rp114
ag36
(g40
S'\xd3\x1f\xbb\xb9'
p115
tp116
Rp117
ag36
(g40
S'\xf1\xef\xdd\xb9'
p118
tp119
Rp120
ag36
(g40
S'\x9e\x00\x9e\xb9'
p121
tp122
Rp123
ag36
(g40
S'\x9e\x00\x9e\xb9'
p124
tp125
Rp126
ag36
(g40
S'h\x93\x859'
p127
tp128
Rp129
ag36
(g40
S'z\xaa<\xba'
p130
tp131
Rp132
ag36
(g40
S'\xefnV\xba'
p133
tp134
Rp135
ag36
(g40
S'Iym\xba'
p136
tp137
Rp138
ag36
(g40
S'\x9a:\x96\xbd'
p139
tp140
Rp141
ag36
(g40
S'8\xa1\x0c\xbb'
p142
tp143
Rp144
ag36
(g40
S'\x01z?\xba'
p145
tp146
Rp147
ag36
(g40
S'\xcd\xc9\xa5\xba'
p148
tp149
Rp150
ag36
(g40
S'\xf8o\xa2\xbd'
p151
tp152
Rp153
ag36
(g40
S'y\xe6e\xba'
p154
tp155
Rp156
ag36
(g40
S'\x7f\x8eo\xba'
p157
tp158
Rp159
ag36
(g40
S'\xcb],\xba'
p160
tp161
Rp162
ag36
(g40
S'\xff\xaf\xaa\xbd'
p163
tp164
Rp165
ag36
(g40
S'E\xca\x01\xbb'
p166
tp167
Rp168
ag36
(g40
S'\x11i\xd0\xba'
p169
tp170
Rp171
ag36
(g40
S'\xcf\xe5\xc7\xba'
p172
tp173
Rp174
ag36
(g40
S'0+\xa4<'
p175
tp176
Rp177
ag36
(g40
S'0+\xa4<'
p178
tp179
Rp180
ag36
(g40
S'\xba}G\xba'
p181
tp182
Rp183
ag36
(g40
S'\x9d\xaf{\xba'
p184
tp185
Rp186
ag36
(g40
S'\x9a"\xbb\xbe'
p187
tp188
Rp189
ag36
(g40
S'\x94/b\xbe'
p190
tp191
Rp192
ag36
(g40
S'\xac\xcbD\xbe'
p193
tp194
Rp195
ag36
(g40
S'\xdb\xc2K\xbe'
p196
tp197
Rp198
ag36
(g40
S'0{\xb5\xbe'
p199
tp200
Rp201
ag36
(g40
S'OK.\xbe'
p202
tp203
Rp204
ag36
(g40
S'\xbe\xf55\xbe'
p205
tp206
Rp207
ag36
(g40
S'\xa5\x97\xe4\xbd'
p208
tp209
Rp210
ag36
(g40
S'\x7f=u\xbd'
p211
tp212
Rp213
ag36
(g40
S'\x81\xfd\x8c\xbd'
p214
tp215
Rp216
ag36
(g40
S'\xe4\xea\x02\xbd'
p217
tp218
Rp219
ag36
(g40
S'iA\x8d\xbd'
p220
tp221
Rp222
ag36
(g40
S'\x070\x84\xbd'
p223
tp224
Rp225
ag36
(g40
S'pDu\xbc'
p226
tp227
Rp228
ag36
(g40
S'\xd7\x14\xa6\xbc'
p229
tp230
Rp231
ag36
(g40
S'\x18\xe5\xa6\xbc'
p232
tp233
Rp234
assS'n_var'
p235
I3
sS'array'
p236
(lp237
(I0
I0
I0
tp238
a(I0
I0
I1
tp239
a(I0
I0
I2
tp240
a(I0
I0
I3
tp241
a(I0
I1
I0
tp242
a(I0
I1
I1
tp243
a(I0
I1
I2
tp244
a(I0
I1
I3
tp245
a(I0
I2
I0
tp246
a(I0
I2
I1
tp247
a(I0
I2
I2
tp248
a(I0
I2
I3
tp249
a(I0
I3
I0
tp250
a(I0
I3
I1
tp251
a(I0
I3
I2
tp252
a(I0
I3
I3
tp253
a(I1
I0
I0
tp254
a(I1
I0
I1
tp255
a(I1
I0
I2
tp256
a(I1
I0
I3
tp257
a(I1
I1
I0
tp258
a(I1
I1
I1
tp259
a(I1
I1
I2
tp260
a(I1
I1
I3
tp261
a(I1
I2
I0
tp262
a(I1
I2
I1
tp263
a(I1
I2
I2
tp264
a(I1
I2
I3
tp265
a(I1
I3
I0
tp266
a(I1
I3
I1
tp267
a(I1
I3
I2
tp268
a(I1
I3
I3
tp269
a(I2
I0
I0
tp270
a(I2
I0
I1
tp271
a(I2
I0
I2
tp272
a(I2
I0
I3
tp273
a(I2
I1
I0
tp274
a(I2
I1
I1
tp275
a(I2
I1
I2
tp276
a(I2
I1
I3
tp277
a(I2
I2
I0
tp278
a(I2
I2
I1
tp279
a(I2
I2
I2
tp280
a(I2
I2
I3
tp281
a(I2
I3
I0
tp282
a(I2
I3
I1
tp283
a(I2
I3
I2
tp284
a(I2
I3
I3
tp285
a(I3
I0
I0
tp286
a(I3
I0
I1
tp287
a(I3
I0
I2
tp288
a(I3
I0
I3
tp289
a(I3
I1
I0
tp290
a(I3
I1
I1
tp291
a(I3
I1
I2
tp292
a(I3
I1
I3
tp293
a(I3
I2
I0
tp294
a(I3
I2
I1
tp295
a(I3
I2
I2
tp296
a(I3
I2
I3
tp297
a(I3
I3
I0
tp298
a(I3
I3
I1
tp299
a(I3
I3
I2
tp300
a(I3
I3
I3
tp301
asS'output_names'
p302
(lp303
g30
ag32
ag34
asb.