(iDOE_FullFactorial
DOE
p0
(dp1
S'runs'
p2
I64
sS'variables'
p3
(lp4
(dp5
S'upper'
p6
F0.075
sS'lower'
p7
F0.02
sS'levels'
p8
I4
sS'type'
p9
c__builtin__
float
p10
sS'name'
p11
S'k'
p12
sa(dp13
g6
I1
sg7
F0.0
sg8
I4
sg9
g10
sg11
S'g'
p14
sa(dp15
g6
I1000
sg7
I100
sg8
I4
sg9
c__builtin__
int
p16
sg11
S'N'
p17
sasS'driver'
p18
S'Full Factorial'
p19
sS'domain'
p20
(dp21
g12
(lp22
F0.02
aF0.02
aF0.02
aF0.02
aF0.02
aF0.02
aF0.02
aF0.02
aF0.02
aF0.02
aF0.02
aF0.02
aF0.02
aF0.02
aF0.02
aF0.02
aF0.0383333333333333
aF0.0383333333333333
aF0.0383333333333333
aF0.0383333333333333
aF0.0383333333333333
aF0.0383333333333333
aF0.0383333333333333
aF0.0383333333333333
aF0.0383333333333333
aF0.0383333333333333
aF0.0383333333333333
aF0.0383333333333333
aF0.0383333333333333
aF0.0383333333333333
aF0.0383333333333333
aF0.0383333333333333
aF0.0566666666666667
aF0.0566666666666667
aF0.0566666666666667
aF0.0566666666666667
aF0.0566666666666667
aF0.0566666666666667
aF0.0566666666666667
aF0.0566666666666667
aF0.0566666666666667
aF0.0566666666666667
aF0.0566666666666667
aF0.0566666666666667
aF0.0566666666666667
aF0.0566666666666667
aF0.0566666666666667
aF0.0566666666666667
aF0.075
aF0.075
aF0.075
aF0.075
aF0.075
aF0.075
aF0.075
aF0.075
aF0.075
aF0.075
aF0.075
aF0.075
aF0.075
aF0.075
aF0.075
aF0.075
asg14
(lp23
F0.0
aF0.0
aF0.0
aF0.0
aF0.333333333333333
aF0.333333333333333
aF0.333333333333333
aF0.333333333333333
aF0.666666666666667
aF0.666666666666667
aF0.666666666666667
aF0.666666666666667
aF1.0
aF1.0
aF1.0
aF1.0
aF0.0
aF0.0
aF0.0
aF0.0
aF0.333333333333333
aF0.333333333333333
aF0.333333333333333
aF0.333333333333333
aF0.666666666666667
aF0.666666666666667
aF0.666666666666667
aF0.666666666666667
aF1.0
aF1.0
aF1.0
aF1.0
aF0.0
aF0.0
aF0.0
aF0.0
aF0.333333333333333
aF0.333333333333333
aF0.333333333333333
aF0.333333333333333
aF0.666666666666667
aF0.666666666666667
aF0.666666666666667
aF0.666666666666667
aF1.0
aF1.0
aF1.0
aF1.0
aF0.0
aF0.0
aF0.0
aF0.0
aF0.333333333333333
aF0.333333333333333
aF0.333333333333333
aF0.333333333333333
aF0.666666666666667
aF0.666666666666667
aF0.666666666666667
aF0.666666666666667
aF1.0
aF1.0
aF1.0
aF1.0
asg17
(lp24
F100.0
aF400.0
aF700.0
aF1000.0
aF100.0
aF400.0
aF700.0
aF1000.0
aF100.0
aF400.0
aF700.0
aF1000.0
aF100.0
aF400.0
aF700.0
aF1000.0
aF100.0
aF400.0
aF700.0
aF1000.0
aF100.0
aF400.0
aF700.0
aF1000.0
aF100.0
aF400.0
aF700.0
aF1000.0
aF100.0
aF400.0
aF700.0
aF1000.0
aF100.0
aF400.0
aF700.0
aF1000.0
aF100.0
aF400.0
aF700.0
aF1000.0
aF100.0
aF400.0
aF700.0
aF1000.0
aF100.0
aF400.0
aF700.0
aF1000.0
aF100.0
aF400.0
aF700.0
aF1000.0
aF100.0
aF400.0
aF700.0
aF1000.0
aF100.0
aF400.0
aF700.0
aF1000.0
aF100.0
aF400.0
aF700.0
aF1000.0
assg8
I4
sS'n_var_2'
p25
I0
sS'variables_names'
p26
(lp27
g12
ag14
ag17
asS'output'
p28
(dp29
S'stress'
p30
(lp31
F7061708.0
aF220311.34375
aF220638.484375
aF12793435.0
aF5744897.0
aF11443118.0
aF220638.484375
aF403349.25
aF468718.96875
aF220306.9375
aF271855.75
aF406059.34375
aF300101.65625
aF323803.625
aF220638.484375
aF220143.59375
aF220143.59375
aF12793435.0
aF221560.609375
aF221560.609375
aF12793435.0
aF4963460.5
aF573351.3125
aF232739.953125
aF12793435.0
aF221560.609375
aF217966.65625
aF221560.609375
aF3052748.0
aF344386.90625
aF220664.515625
aF220749.40625
aF2258841.25
aF595549.5625
aF229648.15625
aF359159.3125
aF1874304.375
aF12793435.0
aF2740498.25
aF264918.25
aF2346601.25
aF360423.46875
aF345630.96875
aF472208.75
aF1055180.125
aF1055180.125
aF221562.546875
aF221560.578125
aF5351552.0
aF2875644.5
aF2466158.25
aF6730366.5
aF5321609.5
aF2597497.5
aF2516081.25
aF2542323.75
aF12793435.0
aF1775835.375
aF1567153.25
aF1812810.25
aF1930178.0
aF1394882.125
aF1428794.75
aF1413631.75
asS'nodes'
p32
(lp33
I181
aI901
aI971
aI62
aI191
aI92
aI971
aI879
aI377
aI871
aI750
aI816
aI563
aI555
aI971
aI967
aI967
aI47
aI550
aI580
aI46
aI193
aI352
aI556
aI0
aI417
aI455
aI460
aI127
aI268
aI376
aI401
aI283
aI367
aI413
aI383
aI203
aI0
aI93
aI307
aI164
aI233
aI239
aI215
aI151
aI151
aI207
aI212
aI214
aI266
aI275
aI141
aI139
aI169
aI182
aI140
aI0
aI144
aI150
aI152
aI108
aI125
aI133
aI135
asS'displacement'
p34
(lp35
cnumpy.core.multiarray
scalar
p36
(cnumpy
dtype
p37
(S'f4'
p38
I0
I1
tp39
Rp40
(I3
S'<'
p41
NNNI-1
I-1
I0
tp42
bS'\x194*='
p43
tp44
Rp45
ag36
(g40
S'\xe5@%\xb9'
p46
tp47
Rp48
ag36
(g40
S'\x02Y\x1e\xb9'
p49
tp50
Rp51
ag36
(g40
S'\xc3\xf6:>'
p52
tp53
Rp54
ag36
(g40
S'\xa1\xb4\xc2<'
p55
tp56
Rp57
ag36
(g40
S'~\xd7!>'
p58
tp59
Rp60
ag36
(g40
S'\x02Y\x1e\xb9'
p61
tp62
Rp63
ag36
(g40
S't\xc1 6'
p64
tp65
Rp66
ag36
(g40
S'\x10\xf9\xea\xb8'
p67
tp68
Rp69
ag36
(g40
S'\x1e\x8c#\xb9'
p70
tp71
Rp72
ag36
(g40
S'\xa5\xd8\x10\xb9'
p73
tp74
Rp75
ag36
(g40
S'q\xfb\xd9\xb5'
p76
tp77
Rp78
ag36
(g40
S'\xe9\xfd?\xb9'
p79
tp80
Rp81
ag36
(g40
S'\xcf\x9f2\xb9'
p82
tp83
Rp84
ag36
(g40
S'\x02Y\x1e\xb9'
p85
tp86
Rp87
ag36
(g40
S'\xeck\xfe\xb8'
p88
tp89
Rp90
ag36
(g40
S'\xeck\xfe\xb8'
p91
tp92
Rp93
ag36
(g40
S'\xc3\xf6:>'
p94
tp95
Rp96
ag36
(g40
S':\xd7\x02\xb9'
p97
tp98
Rp99
ag36
(g40
S'Y\xfb\xdb\xb8'
p100
tp101
Rp102
ag36
(g40
S'\xc3\xf6:>'
p103
tp104
Rp105
ag36
(g40
S'\xd7R\x18='
p106
tp107
Rp108
ag36
(g40
S'\xa5\x1a\xa18'
p109
tp110
Rp111
ag36
(g40
S',\xc9\x16\xb8'
p112
tp113
Rp114
ag36
(g40
S'\xc3\xf6:>'
p115
tp116
Rp117
ag36
(g40
S't\x8aY\xb8'
p118
tp119
Rp120
ag36
(g40
S'I\x1e\x1c\xb8'
p121
tp122
Rp123
ag36
(g40
S'\xd6c\x0e\xb8'
p124
tp125
Rp126
ag36
(g40
S'\x10b\x0c<'
p127
tp128
Rp129
ag36
(g40
S'\xd8\x85\xba\xb8'
p130
tp131
Rp132
ag36
(g40
S'\x81\x91\xe3\xb8'
p133
tp134
Rp135
ag36
(g40
S'R\x9a\xf4\xb8'
p136
tp137
Rp138
ag36
(g40
S'\xe2\x03\x92\xb9'
p139
tp140
Rp141
ag36
(g40
S'\xb5\x87\x10\xb9'
p142
tp143
Rp144
ag36
(g40
S'8\x94\xc8\xb8'
p145
tp146
Rp147
ag36
(g40
S'\x05J\xa9\xb8'
p148
tp149
Rp150
ag36
(g40
S'C\x83\x8d\xba'
p151
tp152
Rp153
ag36
(g40
S'\xc3\xf6:>'
p154
tp155
Rp156
ag36
(g40
S'\xd1\xd5\xf6<'
p157
tp158
Rp159
ag36
(g40
S'zv\xab\xb8'
p160
tp161
Rp162
ag36
(g40
S'\xccq\x80\xba'
p163
tp164
Rp165
ag36
(g40
S'\x9e\xbe\xfb\xb8'
p166
tp167
Rp168
ag36
(g40
S'\xb2q\xd2\xb8'
p169
tp170
Rp171
ag36
(g40
S'kV\xec\xb8'
p172
tp173
Rp174
ag36
(g40
S'S\xb1z:'
p175
tp176
Rp177
ag36
(g40
S'S\xb1z:'
p178
tp179
Rp180
ag36
(g40
S'\xda\x02\xaa\xb8'
p181
tp182
Rp183
ag36
(g40
S'n*\xa2\xb8'
p184
tp185
Rp186
ag36
(g40
S'<f:\xbc'
p187
tp188
Rp189
ag36
(g40
S'\xc9\x84-\xbb'
p190
tp191
Rp192
ag36
(g40
S'\\\xda\x99\xba'
p193
tp194
Rp195
ag36
(g40
S'\xc3;\x87='
p196
tp197
Rp198
ag36
(g40
S"\x9c'C\xbc"
p199
tp200
Rp201
ag36
(g40
S'\xc3\xfc.\xbb'
p202
tp203
Rp204
ag36
(g40
S'[\xec\x10\xba'
p205
tp206
Rp207
ag36
(g40
S'\xcbK\x03\xbb'
p208
tp209
Rp210
ag36
(g40
S'\xc3\xf6:>'
p211
tp212
Rp213
ag36
(g40
S'\x83\x84\xe1\xba'
p214
tp215
Rp216
ag36
(g40
S'h\xf5)\xba'
p217
tp218
Rp219
ag36
(g40
S'\xdb\x10\xdd\xba'
p220
tp221
Rp222
ag36
(g40
S')\x00\xd1\xba'
p223
tp224
Rp225
ag36
(g40
S"'\xa6W\xb9"
p226
tp227
Rp228
ag36
(g40
S'\x88\xc9\xa2\xb9'
p229
tp230
Rp231
ag36
(g40
S'\x84\xd8\xae\xb9'
p232
tp233
Rp234
assS'n_var'
p235
I3
sS'array'
p236
(lp237
(I0
I0
I0
tp238
a(I0
I0
I1
tp239
a(I0
I0
I2
tp240
a(I0
I0
I3
tp241
a(I0
I1
I0
tp242
a(I0
I1
I1
tp243
a(I0
I1
I2
tp244
a(I0
I1
I3
tp245
a(I0
I2
I0
tp246
a(I0
I2
I1
tp247
a(I0
I2
I2
tp248
a(I0
I2
I3
tp249
a(I0
I3
I0
tp250
a(I0
I3
I1
tp251
a(I0
I3
I2
tp252
a(I0
I3
I3
tp253
a(I1
I0
I0
tp254
a(I1
I0
I1
tp255
a(I1
I0
I2
tp256
a(I1
I0
I3
tp257
a(I1
I1
I0
tp258
a(I1
I1
I1
tp259
a(I1
I1
I2
tp260
a(I1
I1
I3
tp261
a(I1
I2
I0
tp262
a(I1
I2
I1
tp263
a(I1
I2
I2
tp264
a(I1
I2
I3
tp265
a(I1
I3
I0
tp266
a(I1
I3
I1
tp267
a(I1
I3
I2
tp268
a(I1
I3
I3
tp269
a(I2
I0
I0
tp270
a(I2
I0
I1
tp271
a(I2
I0
I2
tp272
a(I2
I0
I3
tp273
a(I2
I1
I0
tp274
a(I2
I1
I1
tp275
a(I2
I1
I2
tp276
a(I2
I1
I3
tp277
a(I2
I2
I0
tp278
a(I2
I2
I1
tp279
a(I2
I2
I2
tp280
a(I2
I2
I3
tp281
a(I2
I3
I0
tp282
a(I2
I3
I1
tp283
a(I2
I3
I2
tp284
a(I2
I3
I3
tp285
a(I3
I0
I0
tp286
a(I3
I0
I1
tp287
a(I3
I0
I2
tp288
a(I3
I0
I3
tp289
a(I3
I1
I0
tp290
a(I3
I1
I1
tp291
a(I3
I1
I2
tp292
a(I3
I1
I3
tp293
a(I3
I2
I0
tp294
a(I3
I2
I1
tp295
a(I3
I2
I2
tp296
a(I3
I2
I3
tp297
a(I3
I3
I0
tp298
a(I3
I3
I1
tp299
a(I3
I3
I2
tp300
a(I3
I3
I3
tp301
asS'output_names'
p302
(lp303
g30
ag32
ag34
asb.