(dp0
S'stress'
p1
F27714796.0
sS'nodes'
p2
I120
sS'displacement'
p3
cnumpy.core.multiarray
scalar
p4
(cnumpy
dtype
p5
(S'f4'
p6
I0
I1
tp7
Rp8
(I3
S'<'
p9
NNNI-1
I-1
I0
tp10
bS'\x10)\xd2\xbc'
p11
tp12
Rp13
s.