(lp0
ccopy_reg
_reconstructor
p1
(cdeap.creator
Individual
p2
c__builtin__
list
p3
(lp4
F0.8007701746139336
aF0.5101496280389792
aF0.7924644569837175
atp5
Rp6
(dp7
S'fitness'
p8
g1
(cdeap.creator
FitnessMin
p9
c__builtin__
object
p10
Ntp11
Rp12
(dp13
S'crowding_dist'
p14
Finf
sS'wvalues'
p15
(cnumpy.core.multiarray
scalar
p16
(cnumpy
dtype
p17
(S'f8'
p18
I0
I1
tp19
Rp20
(I3
S'<'
p21
NNNI-1
I-1
I0
tp22
bS'\x00\x00\x00\xa0\xcep\xbf\xbe'
p23
tp24
Rp25
tp26
sbsbag1
(g2
g3
(lp27
F0.800707339944292
aF0.5101496280389792
aF0.7924644569837175
atp28
Rp29
(dp30
g8
g1
(g9
g10
Ntp31
Rp32
(dp33
g14
Finf
sg15
(g16
(g20
S'\x00\x00\x00@\x1f\x16\xc1\xbe'
p34
tp35
Rp36
tp37
sbsbag1
(g2
g3
(lp38
F0.800707339944292
aF0.5101496280389792
aF0.7924644569837175
atp39
Rp40
(dp41
g8
g1
(g9
g10
Ntp42
Rp43
(dp44
g14
Finf
sg15
(g16
(g20
S'\x00\x00\x00@\x1f\x16\xc1\xbe'
p45
tp46
Rp47
tp48
sbsbag1
(g2
g3
(lp49
F0.8007387058207915
aF0.5101496280389792
aF0.7924644569837175
atp50
Rp51
(dp52
g8
g1
(g9
g10
Ntp53
Rp54
(dp55
g14
Finf
sg15
(g16
(g20
S'\x00\x00\x00@\xfa^\xc1\xbe'
p56
tp57
Rp58
tp59
sbsbag1
(g2
g3
(lp60
F0.8007387058207915
aF0.5101496280389792
aF0.7924644569837175
atp61
Rp62
(dp63
g8
g1
(g9
g10
Ntp64
Rp65
(dp66
g14
F0.0
sg15
(g16
(g20
S'\x00\x00\x00@\xfa^\xc1\xbe'
p67
tp68
Rp69
tp70
sbsbag1
(g2
g3
(lp71
F0.8007387058207915
aF0.5101496280389792
aF0.7924644569837175
atp72
Rp73
(dp74
g8
g1
(g9
g10
Ntp75
Rp76
(dp77
g14
Finf
sg15
(g16
(g20
S'\x00\x00\x00@\xfa^\xc1\xbe'
p78
tp79
Rp80
tp81
sbsbag1
(g2
g3
(lp82
F0.8481010786581424
aF0.5101496280389792
aF0.7924644569837175
atp83
Rp84
(dp85
g8
g1
(g9
g10
Ntp86
Rp87
(dp88
g14
Finf
sg15
(g16
(g20
S'\x00\x00\x00\xa0\x13 \xc3\xbe'
p89
tp90
Rp91
tp92
sbsbag1
(g2
g3
(lp93
F0.8481010786581424
aF0.5101496280389792
aF0.7924644569837175
atp94
Rp95
(dp96
g8
g1
(g9
g10
Ntp97
Rp98
(dp99
g14
F0.0
sg15
(g16
(g20
S'\x00\x00\x00\xa0\x13 \xc3\xbe'
p100
tp101
Rp102
tp103
sbsbag1
(g2
g3
(lp104
F0.8481010786581424
aF0.5101496280389792
aF0.7924644569837175
atp105
Rp106
(dp107
g8
g1
(g9
g10
Ntp108
Rp109
(dp110
g14
Finf
sg15
(g16
(g20
S'\x00\x00\x00\xa0\x13 \xc3\xbe'
p111
tp112
Rp113
tp114
sbsbag1
(g2
g3
(lp115
F0.7922945547162301
aF0.5101496280389792
aF0.7924644569837175
atp116
Rp117
(dp118
g8
g1
(g9
g10
Ntp119
Rp120
(dp121
g14
Finf
sg15
(g16
(g20
S'\x00\x00\x00\xe0\xcb\xb8\xc3\xbe'
p122
tp123
Rp124
tp125
sbsbag1
(g2
g3
(lp126
F0.7922946224663788
aF0.5101496280389792
aF0.7924644569837175
atp127
Rp128
(dp129
g8
g1
(g9
g10
Ntp130
Rp131
(dp132
g14
Finf
sg15
(g16
(g20
S'\x00\x00\x00\xe0\xcb\xb8\xc3\xbe'
p133
tp134
Rp135
tp136
sbsbag1
(g2
g3
(lp137
F0.7922947643270941
aF0.5101496280389792
aF0.7924644569837175
atp138
Rp139
(dp140
g8
g1
(g9
g10
Ntp141
Rp142
(dp143
g14
F0.0
sg15
(g16
(g20
S'\x00\x00\x00\xe0\xcb\xb8\xc3\xbe'
p144
tp145
Rp146
tp147
sbsbag1
(g2
g3
(lp148
F0.7922947700143578
aF0.5101496280389792
aF0.7924644569837175
atp149
Rp150
(dp151
g8
g1
(g9
g10
Ntp152
Rp153
(dp154
g14
F0.0
sg15
(g16
(g20
S'\x00\x00\x00\xe0\xcb\xb8\xc3\xbe'
p155
tp156
Rp157
tp158
sbsbag1
(g2
g3
(lp159
F0.7922948826252417
aF0.5101496280389792
aF0.7924644569837175
atp160
Rp161
(dp162
g8
g1
(g9
g10
Ntp163
Rp164
(dp165
g14
F0.0
sg15
(g16
(g20
S'\x00\x00\x00\xe0\xcb\xb8\xc3\xbe'
p166
tp167
Rp168
tp169
sbsbag1
(g2
g3
(lp170
F0.7922945466397208
aF0.5101496280389792
aF0.7924644569837175
atp171
Rp172
(dp173
g8
g1
(g9
g10
Ntp174
Rp175
(dp176
g14
F0.0
sg15
(g16
(g20
S'\x00\x00\x00\xe0\xcb\xb8\xc3\xbe'
p177
tp178
Rp179
tp180
sbsbag1
(g2
g3
(lp181
F0.7922946228943827
aF0.5101496280389792
aF0.7924644569837175
atp182
Rp183
(dp184
g8
g1
(g9
g10
Ntp185
Rp186
(dp187
g14
F0.0
sg15
(g16
(g20
S'\x00\x00\x00\xe0\xcb\xb8\xc3\xbe'
p188
tp189
Rp190
tp191
sbsbag1
(g2
g3
(lp192
F0.7922945547162301
aF0.5101496280389792
aF0.7924644569837175
atp193
Rp194
(dp195
g8
g1
(g9
g10
Ntp196
Rp197
(dp198
g14
F0.0
sg15
(g16
(g20
S'\x00\x00\x00\xe0\xcb\xb8\xc3\xbe'
p199
tp200
Rp201
tp202
sbsbag1
(g2
g3
(lp203
F0.7922947674817055
aF0.5101496280389792
aF0.7924644569837175
atp204
Rp205
(dp206
g8
g1
(g9
g10
Ntp207
Rp208
(dp209
g14
F0.0
sg15
(g16
(g20
S'\x00\x00\x00\xe0\xcb\xb8\xc3\xbe'
p210
tp211
Rp212
tp213
sbsbag1
(g2
g3
(lp214
F0.7922948574943467
aF0.5101496280389792
aF0.7924644569837175
atp215
Rp216
(dp217
g8
g1
(g9
g10
Ntp218
Rp219
(dp220
g14
F0.0
sg15
(g16
(g20
S'\x00\x00\x00\xe0\xcb\xb8\xc3\xbe'
p221
tp222
Rp223
tp224
sbsbag1
(g2
g3
(lp225
F0.7922947738400725
aF0.5101496280389792
aF0.7924644569837175
atp226
Rp227
(dp228
g8
g1
(g9
g10
Ntp229
Rp230
(dp231
g14
F0.0
sg15
(g16
(g20
S'\x00\x00\x00\xe0\xcb\xb8\xc3\xbe'
p232
tp233
Rp234
tp235
sbsbag1
(g2
g3
(lp236
F0.7922945547162301
aF0.5101496280389792
aF0.7924644569837175
atp237
Rp238
(dp239
g8
g1
(g9
g10
Ntp240
Rp241
(dp242
g14
F0.0
sg15
(g16
(g20
S'\x00\x00\x00\xe0\xcb\xb8\xc3\xbe'
p243
tp244
Rp245
tp246
sbsbag1
(g2
g3
(lp247
F0.7922943823261174
aF0.5101496280389792
aF0.7924644569837175
atp248
Rp249
(dp250
g8
g1
(g9
g10
Ntp251
Rp252
(dp253
g14
F0.0
sg15
(g16
(g20
S'\x00\x00\x00\xe0\xcb\xb8\xc3\xbe'
p254
tp255
Rp256
tp257
sbsbag1
(g2
g3
(lp258
F0.7922945547162301
aF0.5101496280389792
aF0.7924644569837175
atp259
Rp260
(dp261
g8
g1
(g9
g10
Ntp262
Rp263
(dp264
g14
F0.0
sg15
(g16
(g20
S'\x00\x00\x00\xe0\xcb\xb8\xc3\xbe'
p265
tp266
Rp267
tp268
sbsbag1
(g2
g3
(lp269
F0.7922945547162301
aF0.5101496280389792
aF0.7924644569837175
atp270
Rp271
(dp272
g8
g1
(g9
g10
Ntp273
Rp274
(dp275
g14
F0.0
sg15
(g16
(g20
S'\x00\x00\x00\xe0\xcb\xb8\xc3\xbe'
p276
tp277
Rp278
tp279
sbsbag1
(g2
g3
(lp280
F0.7922945547162301
aF0.5101496280389792
aF0.7924644569837175
atp281
Rp282
(dp283
g8
g1
(g9
g10
Ntp284
Rp285
(dp286
g14
F0.0
sg15
(g16
(g20
S'\x00\x00\x00\xe0\xcb\xb8\xc3\xbe'
p287
tp288
Rp289
tp290
sbsbag1
(g2
g3
(lp291
F0.7922945547162301
aF0.5101496280389792
aF0.7924644569837175
atp292
Rp293
(dp294
g8
g1
(g9
g10
Ntp295
Rp296
(dp297
g14
F0.0
sg15
(g16
(g20
S'\x00\x00\x00\xe0\xcb\xb8\xc3\xbe'
p298
tp299
Rp300
tp301
sbsbag1
(g2
g3
(lp302
F0.7922947732477365
aF0.5101496280389792
aF0.7924644569837175
atp303
Rp304
(dp305
g8
g1
(g9
g10
Ntp306
Rp307
(dp308
g14
F0.0
sg15
(g16
(g20
S'\x00\x00\x00\xe0\xcb\xb8\xc3\xbe'
p309
tp310
Rp311
tp312
sbsbag1
(g2
g3
(lp313
F0.7922947691626631
aF0.5101496280389792
aF0.7924644569837175
atp314
Rp315
(dp316
g8
g1
(g9
g10
Ntp317
Rp318
(dp319
g14
F0.0
sg15
(g16
(g20
S'\x00\x00\x00\xe0\xcb\xb8\xc3\xbe'
p320
tp321
Rp322
tp323
sbsbag1
(g2
g3
(lp324
F0.7922945457877411
aF0.5101496280389792
aF0.7924644569837175
atp325
Rp326
(dp327
g8
g1
(g9
g10
Ntp328
Rp329
(dp330
g14
F0.0
sg15
(g16
(g20
S'\x00\x00\x00\xe0\xcb\xb8\xc3\xbe'
p331
tp332
Rp333
tp334
sbsbag1
(g2
g3
(lp335
F0.7922948502154386
aF0.5101496280389792
aF0.7924644569837175
atp336
Rp337
(dp338
g8
g1
(g9
g10
Ntp339
Rp340
(dp341
g14
F0.0
sg15
(g16
(g20
S'\x00\x00\x00\xe0\xcb\xb8\xc3\xbe'
p342
tp343
Rp344
tp345
sbsbag1
(g2
g3
(lp346
F0.7922944161172445
aF0.5101496280389792
aF0.7924644569837175
atp347
Rp348
(dp349
g8
g1
(g9
g10
Ntp350
Rp351
(dp352
g14
F0.0
sg15
(g16
(g20
S'\x00\x00\x00\xe0\xcb\xb8\xc3\xbe'
p353
tp354
Rp355
tp356
sbsbag1
(g2
g3
(lp357
F0.7922946681855784
aF0.5101496280389792
aF0.7924644569837175
atp358
Rp359
(dp360
g8
g1
(g9
g10
Ntp361
Rp362
(dp363
g14
F0.0
sg15
(g16
(g20
S'\x00\x00\x00\xe0\xcb\xb8\xc3\xbe'
p364
tp365
Rp366
tp367
sbsbag1
(g2
g3
(lp368
F0.7922948502154386
aF0.5101496280389792
aF0.7924644569837175
atp369
Rp370
(dp371
g8
g1
(g9
g10
Ntp372
Rp373
(dp374
g14
F0.0
sg15
(g16
(g20
S'\x00\x00\x00\xe0\xcb\xb8\xc3\xbe'
p375
tp376
Rp377
tp378
sbsbag1
(g2
g3
(lp379
F0.7922945547162301
aF0.5101496280389792
aF0.7924644569837175
atp380
Rp381
(dp382
g8
g1
(g9
g10
Ntp383
Rp384
(dp385
g14
F0.0
sg15
(g16
(g20
S'\x00\x00\x00\xe0\xcb\xb8\xc3\xbe'
p386
tp387
Rp388
tp389
sbsbag1
(g2
g3
(lp390
F0.7922945547162301
aF0.5101496280389792
aF0.7924644569837175
atp391
Rp392
(dp393
g8
g1
(g9
g10
Ntp394
Rp395
(dp396
g14
F0.0
sg15
(g16
(g20
S'\x00\x00\x00\xe0\xcb\xb8\xc3\xbe'
p397
tp398
Rp399
tp400
sbsbag1
(g2
g3
(lp401
F0.7922945547162301
aF0.5101496280389792
aF0.7924644569837175
atp402
Rp403
(dp404
g8
g1
(g9
g10
Ntp405
Rp406
(dp407
g14
F0.0
sg15
(g16
(g20
S'\x00\x00\x00\xe0\xcb\xb8\xc3\xbe'
p408
tp409
Rp410
tp411
sbsbag1
(g2
g3
(lp412
F0.7922946228943827
aF0.5101496280389792
aF0.7924644569837175
atp413
Rp414
(dp415
g8
g1
(g9
g10
Ntp416
Rp417
(dp418
g14
F0.0
sg15
(g16
(g20
S'\x00\x00\x00\xe0\xcb\xb8\xc3\xbe'
p419
tp420
Rp421
tp422
sbsbag1
(g2
g3
(lp423
F0.7922945547162301
aF0.5101496280389792
aF0.7924644569837175
atp424
Rp425
(dp426
g8
g1
(g9
g10
Ntp427
Rp428
(dp429
g14
F0.0
sg15
(g16
(g20
S'\x00\x00\x00\xe0\xcb\xb8\xc3\xbe'
p430
tp431
Rp432
tp433
sbsbag1
(g2
g3
(lp434
F0.7922947674817055
aF0.5101496280389792
aF0.7924644569837175
atp435
Rp436
(dp437
g8
g1
(g9
g10
Ntp438
Rp439
(dp440
g14
F0.0
sg15
(g16
(g20
S'\x00\x00\x00\xe0\xcb\xb8\xc3\xbe'
p441
tp442
Rp443
tp444
sbsbag1
(g2
g3
(lp445
F0.7922945547162301
aF0.5101496280389792
aF0.7924644569837175
atp446
Rp447
(dp448
g8
g1
(g9
g10
Ntp449
Rp450
(dp451
g14
F0.0
sg15
(g16
(g20
S'\x00\x00\x00\xe0\xcb\xb8\xc3\xbe'
p452
tp453
Rp454
tp455
sbsba.