(lp0
(lp1
cnumpy.core.multiarray
scalar
p2
(cnumpy
dtype
p3
(S'f4'
p4
I0
I1
tp5
Rp6
(I3
S'<'
p7
NNNI-1
I-1
I0
tp8
bS'^\x05\xa89'
p9
tp10
Rp11
ag2
(g6
S'^\x05\xa89'
p12
tp13
Rp14
aa(lp15
g2
(g6
S'x\x03\xa89'
p16
tp17
Rp18
ag2
(g6
S'x\x03\xa89'
p19
tp20
Rp21
aa(lp22
g2
(g6
S'\x1d]\x909'
p23
tp24
Rp25
ag2
(g6
S'\x1d]\x909'
p26
tp27
Rp28
aa(lp29
g2
(g6
S'2\xb6\x819'
p30
tp31
Rp32
ag2
(g6
S'y\xd3\x9f9'
p33
tp34
Rp35
aa(lp36
g2
(g6
S'\xfa\xfa\x909'
p37
tp38
Rp39
ag2
(g6
S'\xfa\xfa\x909'
p40
tp41
Rp42
aa(lp43
g2
(g6
S'\x00\x00\x00\x00'
p44
tp45
Rp46
ag2
(g6
S'\x00\x00\x00\x00'
p47
tp48
Rp49
aa.